target datalayout = "e-m:e-p270:32:32-p271:32:32-p272:64:64-i64:64-i128:128-f80:128-n8:16:32:64-S128"
target triple = "x86_64-pc-linux-gnu"

%struct.HeapTupleData = type { i32, %struct.ItemPointerData, i32, ptr }
%struct.ItemPointerData = type { %struct.BlockIdData, i16 }
%struct.BlockIdData = type { i16, i16 }
%struct.HeapTupleHeaderData = type { %union.anon, %struct.ItemPointerData, i16, i16, i8, [0 x i8] }
%union.anon = type { %struct.HeapTupleFields }
%struct.HeapTupleFields = type { i32, i32, %union.anon.0 }
%union.anon.0 = type { i32 }
%struct.nameData = type { [64 x i8] }
%struct.FormData_pg_attribute = type { i32, %struct.nameData, i32, i16, i16, i32, i16, i8, i8, i8, i8, i8, i8, i8, i8, i8, i8, i8, i16, i32 }

@.str.1 = private unnamed_addr constant [12 x i8] c"lsyscache.c\00", align 1
@.str.2 = private unnamed_addr constant [52 x i8] c"cache lookup failed for attribute %d of relation %u\00", align 1
@__func__.get_atttypetypmodcoll = private unnamed_addr constant [22 x i8] c"get_atttypetypmodcoll\00", align 1

; Function Attrs: inlinehint nounwind uwtable
define internal ptr @GETSTRUCT(ptr noundef %0) #2 {
  %2 = alloca ptr, align 8
  store ptr %0, ptr %2, align 8
  %3 = load ptr, ptr %2, align 8
  %4 = getelementptr inbounds nuw %struct.HeapTupleData, ptr %3, i32 0, i32 3
  %5 = load ptr, ptr %4, align 8
  %6 = load ptr, ptr %2, align 8
  %7 = getelementptr inbounds nuw %struct.HeapTupleData, ptr %6, i32 0, i32 3
  %8 = load ptr, ptr %7, align 8
  %9 = getelementptr inbounds nuw %struct.HeapTupleHeaderData, ptr %8, i32 0, i32 4
  %10 = load i8, ptr %9, align 2
  %11 = zext i8 %10 to i32
  %12 = sext i32 %11 to i64
  %13 = getelementptr inbounds i8, ptr %5, i64 %12
  ret ptr %13
}

; Function Attrs: inlinehint nounwind uwtable
define internal i64 @Int16GetDatum(i16 noundef signext %0) #2 {
  %2 = alloca i16, align 2
  store i16 %0, ptr %2, align 2
  %3 = load i16, ptr %2, align 2
  %4 = sext i16 %3 to i64
  ret i64 %4
}

; Function Attrs: inlinehint nounwind uwtable
define internal i64 @ObjectIdGetDatum(i32 noundef %0) #2 {
  %2 = alloca i32, align 4
  store i32 %0, ptr %2, align 4
  %3 = load i32, ptr %2, align 4
  %4 = zext i32 %3 to i64
  ret i64 %4
}

; Function Attrs: nounwind uwtable
define dso_local void @get_atttypetypmodcoll(i32 noundef %0, i16 noundef signext %1, ptr noundef %2, ptr noundef %3, ptr noundef %4) #0 {
  %6 = alloca i32, align 4
  %7 = alloca i16, align 2
  %8 = alloca ptr, align 8
  %9 = alloca ptr, align 8
  %10 = alloca ptr, align 8
  %11 = alloca ptr, align 8
  %12 = alloca ptr, align 8
  store i32 %0, ptr %6, align 4
  store i16 %1, ptr %7, align 2
  store ptr %2, ptr %8, align 8
  store ptr %3, ptr %9, align 8
  store ptr %4, ptr %10, align 8
  call void @llvm.lifetime.start.p0(i64 8, ptr %11) #7
  call void @llvm.lifetime.start.p0(i64 8, ptr %12) #7
  %13 = load i32, ptr %6, align 4
  %14 = call i64 @ObjectIdGetDatum(i32 noundef %13)
  %15 = load i16, ptr %7, align 2
  %16 = call i64 @Int16GetDatum(i16 noundef signext %15)
  %17 = call ptr @SearchSysCache2(i32 noundef 7, i64 noundef %14, i64 noundef %16)
  store ptr %17, ptr %11, align 8
  %18 = load ptr, ptr %11, align 8
  %19 = icmp ne ptr %18, null
  br i1 %19, label %34, label %20

20:                                               ; preds = %5
  br label %21

21:                                               ; preds = %20
  br i1 true, label %22, label %24

22:                                               ; preds = %21
  %23 = call zeroext i1 @errstart_cold(i32 noundef 21, ptr noundef null) #8
  br i1 %23, label %26, label %31

24:                                               ; preds = %21
  %25 = call zeroext i1 @errstart(i32 noundef 21, ptr noundef null)
  br i1 %25, label %26, label %31

26:                                               ; preds = %24, %22
  %27 = load i16, ptr %7, align 2
  %28 = sext i16 %27 to i32
  %29 = load i32, ptr %6, align 4
  %30 = call i32 (ptr, ...) @errmsg_internal(ptr noundef @.str.2, i32 noundef %28, i32 noundef %29)
  call void @errfinish(ptr noundef @.str.1, i32 noundef 955, ptr noundef @__func__.get_atttypetypmodcoll)
  br label %31

31:                                               ; preds = %26, %24, %22
  unreachable

32:                                               ; No predecessors!
  br label %33

33:                                               ; preds = %32
  br label %34

34:                                               ; preds = %33, %5
  %35 = load ptr, ptr %11, align 8
  %36 = call ptr @GETSTRUCT(ptr noundef %35)
  store ptr %36, ptr %12, align 8
  %37 = load ptr, ptr %12, align 8
  %38 = getelementptr inbounds nuw %struct.FormData_pg_attribute, ptr %37, i32 0, i32 2
  %39 = load i32, ptr %38, align 4
  %40 = load ptr, ptr %8, align 8
  store i32 %39, ptr %40, align 4
  %41 = load ptr, ptr %12, align 8
  %42 = getelementptr inbounds nuw %struct.FormData_pg_attribute, ptr %41, i32 0, i32 5
  %43 = load i32, ptr %42, align 4
  %44 = load ptr, ptr %9, align 8
  store i32 %43, ptr %44, align 4
  %45 = load ptr, ptr %12, align 8
  %46 = getelementptr inbounds nuw %struct.FormData_pg_attribute, ptr %45, i32 0, i32 19
  %47 = load i32, ptr %46, align 4
  %48 = load ptr, ptr %10, align 8
  store i32 %47, ptr %48, align 4
  %49 = load ptr, ptr %11, align 8
  call void @ReleaseSysCache(ptr noundef %49)
  call void @llvm.lifetime.end.p0(i64 8, ptr %12) #7
  call void @llvm.lifetime.end.p0(i64 8, ptr %11) #7
  ret void
}