; Function Attrs: nounwind uwtable
define dso_local void @get_atttypetypmodcoll(i32 noundef %0, i16 noundef signext %1, ptr noundef writeonly captures(none) %2, ptr noundef writeonly captures(none) %3, ptr noundef writeonly captures(none) %4) local_unnamed_addr #0 {
  %6 = zext i32 %0 to i64
  %7 = sext i16 %1 to i64
  %8 = tail call ptr @SearchSysCache2(i32 noundef 7, i64 noundef %6, i64 noundef %7) #8
  %.not = icmp eq ptr %8, null
  br i1 %.not, label %9, label %13

9:                                                ; preds = %5
  %10 = tail call zeroext i1 @errstart_cold(i32 noundef 21, ptr noundef null) #9
  tail call void @llvm.assume(i1 %10)
  %11 = sext i16 %1 to i32
  %12 = tail call i32 (ptr, ...) @errmsg_internal(ptr noundef nonnull @.str.2, i32 noundef %11, i32 noundef %0) #8
  tail call void @errfinish(ptr noundef nonnull @.str.1, i32 noundef 955, ptr noundef nonnull @__func__.get_atttypetypmodcoll) #8
  unreachable

13:                                               ; preds = %5
  %14 = getelementptr i8, ptr %8, i64 16
  %.val = load ptr, ptr %14, align 8
  %15 = getelementptr inbounds nuw i8, ptr %.val, i64 22
  %16 = load i8, ptr %15, align 2
  %17 = zext i8 %16 to i64
  %18 = getelementptr inbounds nuw i8, ptr %.val, i64 %17
  %19 = getelementptr inbounds nuw i8, ptr %18, i64 68
  %20 = load i32, ptr %19, align 4
  store i32 %20, ptr %2, align 4
  %21 = getelementptr inbounds nuw i8, ptr %18, i64 76
  %22 = load i32, ptr %21, align 4
  store i32 %22, ptr %3, align 4
  %23 = getelementptr inbounds nuw i8, ptr %18, i64 96
  %24 = load i32, ptr %23, align 4
  store i32 %24, ptr %4, align 4
  tail call void @ReleaseSysCache(ptr noundef nonnull %8) #8
  ret void
}